; Function Attrs: nounwind sspstrong uwtable
define dso_local void @tcg_gen_vec_shr16i_i64(ptr noundef %0, ptr noundef %1, i64 noundef %2) #2 {
  %4 = trunc i64 %2 to i32
  %5 = lshr i32 65535, %4
  %6 = zext nneg i32 %5 to i64
  %7 = mul nuw i64 %6, 281479271743489
  tail call void @tcg_gen_shri_i64(ptr noundef %0, ptr noundef %1, i64 noundef %2) #10
  tail call void @tcg_gen_andi_i64(ptr noundef %0, ptr noundef %0, i64 noundef %7) #10
  ret void
}